target datalayout = "e-m:e-p270:32:32-p271:32:32-p272:64:64-i64:64-i128:128-f80:128-n8:16:32:64-S128"
target triple = "x86_64-pc-linux-gnu"

%"class.icu_77::Calendar" = type <{ %"class.icu_77::UObject", [24 x i32], [24 x i8], i8, [7 x i8], double, ptr, i8, i16, i8, i32, i32, i32, i8, i8, i16, [4 x i8], ptr, ptr }>
%"class.icu_77::UObject" = type { ptr }

@_ZN6icu_778Calendar16kMonthPrecedenceE = external constant [0 x [12 x [8 x i32]]], align 4

; Function Attrs: mustprogress nounwind uwtable
define noundef signext i8 @_ZN6icu_7714HebrewCalendar10isLeapYearEi(i32 noundef %0) #3 align 2 {
  %2 = alloca i32, align 4
  %3 = alloca i64, align 8
  store i32 %0, ptr %2, align 4, !tbaa !15
  call void @llvm.lifetime.start.p0(i64 8, ptr %3) #11
  %4 = load i32, ptr %2, align 4, !tbaa !15
  %5 = sext i32 %4 to i64
  %6 = mul nsw i64 %5, 12
  %7 = add nsw i64 %6, 17
  %8 = srem i64 %7, 19
  store i64 %8, ptr %3, align 8, !tbaa !19
  %9 = load i64, ptr %3, align 8, !tbaa !19
  %10 = load i64, ptr %3, align 8, !tbaa !19
  %11 = icmp slt i64 %10, 0
  %12 = select i1 %11, i32 -7, i32 12
  %13 = sext i32 %12 to i64
  %14 = icmp sge i64 %9, %13
  %15 = zext i1 %14 to i8
  call void @llvm.lifetime.end.p0(i64 8, ptr %3) #11
  ret i8 %15
}

; Function Attrs: inlinehint mustprogress nounwind uwtable
define linkonce_odr noundef i32 @_ZNK6icu_778Calendar11internalGetE19UCalendarDateFields(ptr noundef nonnull align 8 dereferenceable(192) %0, i32 noundef %1) #4 comdat align 2 {
  %3 = alloca ptr, align 8
  %4 = alloca i32, align 4
  store ptr %0, ptr %3, align 8, !tbaa !37
  store i32 %1, ptr %4, align 4, !tbaa !13
  %5 = load ptr, ptr %3, align 8
  %6 = getelementptr inbounds nuw %"class.icu_77::Calendar", ptr %5, i32 0, i32 1
  %7 = load i32, ptr %4, align 4, !tbaa !13
  %8 = zext i32 %7 to i64
  %9 = getelementptr inbounds nuw [24 x i32], ptr %6, i64 0, i64 %8
  %10 = load i32, ptr %9, align 4, !tbaa !15
  ret i32 %10
}

; Function Attrs: inlinehint mustprogress nounwind uwtable
define internal noundef signext i8 @_ZL9U_FAILURE10UErrorCode(i32 noundef %0) #4 {
  %2 = alloca i32, align 4
  store i32 %0, ptr %2, align 4, !tbaa !17
  %3 = load i32, ptr %2, align 4, !tbaa !17
  %4 = icmp sgt i32 %3, 0
  %5 = zext i1 %4 to i8
  ret i8 %5
}

; Function Attrs: mustprogress uwtable
define noundef i32 @_ZNK6icu_7714HebrewCalendar16internalGetMonthER10UErrorCode(ptr noundef nonnull align 8 dereferenceable(192) %0, ptr noundef nonnull align 4 dereferenceable(4) %1) unnamed_addr #0 align 2 {
  %3 = alloca i32, align 4
  %4 = alloca ptr, align 8
  %5 = alloca ptr, align 8
  %6 = alloca i32, align 4
  %7 = alloca ptr, align 8
  %8 = alloca i32, align 4
  %9 = alloca i32, align 4
  store ptr %0, ptr %4, align 8, !tbaa !3
  store ptr %1, ptr %5, align 8, !tbaa !10
  %10 = load ptr, ptr %4, align 8
  %11 = load ptr, ptr %5, align 8, !tbaa !10
  %12 = load i32, ptr %11, align 4, !tbaa !17
  %13 = call noundef signext i8 @_ZL9U_FAILURE10UErrorCode(i32 noundef %12)
  %14 = icmp ne i8 %13, 0
  br i1 %14, label %15, label %16

15:                                               ; preds = %2
  store i32 0, ptr %3, align 4
  br label %54

16:                                               ; preds = %2
  %17 = call noundef i32 @_ZNK6icu_778Calendar13resolveFieldsEPA12_A8_Ki(ptr noundef nonnull align 8 dereferenceable(192) %10, ptr noundef @_ZN6icu_778Calendar16kMonthPrecedenceE)
  %18 = icmp eq i32 %17, 23
  br i1 %18, label %19, label %51

19:                                               ; preds = %16
  call void @llvm.lifetime.start.p0(i64 4, ptr %6) #11
  %20 = call noundef i32 @_ZNK6icu_778Calendar11internalGetE19UCalendarDateFields(ptr noundef nonnull align 8 dereferenceable(192) %10, i32 noundef 23)
  store i32 %20, ptr %6, align 4, !tbaa !15
  call void @llvm.lifetime.start.p0(i64 8, ptr %7) #11
  store ptr %10, ptr %7, align 8, !tbaa !3
  call void @llvm.lifetime.start.p0(i64 4, ptr %8) #11
  %21 = load ptr, ptr %7, align 8, !tbaa !3
  %22 = load ptr, ptr %5, align 8, !tbaa !10
  %23 = load ptr, ptr %21, align 8, !tbaa !11
  %24 = getelementptr inbounds ptr, ptr %23, i64 42
  %25 = load ptr, ptr %24, align 8
  %26 = call noundef i32 %25(ptr noundef nonnull align 8 dereferenceable(192) %21, ptr noundef nonnull align 4 dereferenceable(4) %22)
  store i32 %26, ptr %8, align 4, !tbaa !15
  %27 = load ptr, ptr %5, align 8, !tbaa !10
  %28 = load i32, ptr %27, align 4, !tbaa !17
  %29 = call noundef signext i8 @_ZL9U_FAILURE10UErrorCode(i32 noundef %28)
  %30 = icmp ne i8 %29, 0
  br i1 %30, label %31, label %32

31:                                               ; preds = %19
  store i32 0, ptr %3, align 4
  store i32 1, ptr %9, align 4
  br label %48

32:                                               ; preds = %19
  %33 = load i32, ptr %8, align 4, !tbaa !15
  %34 = call noundef signext i8 @_ZN6icu_7714HebrewCalendar10isLeapYearEi(i32 noundef %33)
  %35 = icmp ne i8 %34, 0
  br i1 %35, label %39, label %36

36:                                               ; preds = %32
  %37 = load i32, ptr %6, align 4, !tbaa !15
  %38 = icmp sle i32 %37, 5
  br i1 %38, label %39, label %41

39:                                               ; preds = %36, %32
  %40 = load i32, ptr %6, align 4, !tbaa !15
  store i32 %40, ptr %3, align 4
  store i32 1, ptr %9, align 4
  br label %48

41:                                               ; preds = %36
  %42 = load i32, ptr %6, align 4, !tbaa !15
  %43 = call signext i8 @uprv_add32_overflow_77(i32 noundef %42, i32 noundef 1, ptr noundef %6)
  %44 = icmp ne i8 %43, 0
  br i1 %44, label %47, label %45

45:                                               ; preds = %41
  %46 = load i32, ptr %6, align 4, !tbaa !15
  store i32 %46, ptr %3, align 4
  store i32 1, ptr %9, align 4
  br label %48

47:                                               ; preds = %41
  store i32 0, ptr %9, align 4
  br label %48

48:                                               ; preds = %47, %45, %39, %31
  call void @llvm.lifetime.end.p0(i64 4, ptr %8) #11
  call void @llvm.lifetime.end.p0(i64 8, ptr %7) #11
  call void @llvm.lifetime.end.p0(i64 4, ptr %6) #11
  %49 = load i32, ptr %9, align 4
  switch i32 %49, label %56 [
    i32 0, label %50
    i32 1, label %54
  ]

50:                                               ; preds = %48
  br label %51

51:                                               ; preds = %50, %16
  %52 = load ptr, ptr %5, align 8, !tbaa !10
  %53 = call noundef i32 @_ZNK6icu_778Calendar16internalGetMonthER10UErrorCode(ptr noundef nonnull align 8 dereferenceable(192) %10, ptr noundef nonnull align 4 dereferenceable(4) %52)
  store i32 %53, ptr %3, align 4
  br label %54

54:                                               ; preds = %51, %48, %15
  %55 = load i32, ptr %3, align 4
  ret i32 %55

56:                                               ; preds = %48
  unreachable
}