; Function Attrs: mustprogress uwtable
define noundef i32 @_ZNK6icu_7714HebrewCalendar16internalGetMonthER10UErrorCode(ptr noundef nonnull align 8 dereferenceable(192) %0, ptr noundef nonnull align 4 dereferenceable(4) %1) unnamed_addr #0 align 2 {
  %3 = alloca i32, align 4
  %4 = load i32, ptr %1, align 4, !tbaa !6
  %5 = icmp slt i32 %4, 1
  br i1 %5, label %6, label %32

6:                                                ; preds = %2
  %7 = tail call noundef i32 @_ZNK6icu_778Calendar13resolveFieldsEPA12_A8_Ki(ptr noundef nonnull align 8 dereferenceable(192) %0, ptr noundef nonnull @_ZN6icu_778Calendar16kMonthPrecedenceE)
  %8 = icmp eq i32 %7, 23
  br i1 %8, label %9, label %30

9:                                                ; preds = %6
  call void @llvm.lifetime.start.p0(i64 4, ptr nonnull %3) #8
  %10 = getelementptr inbounds nuw i8, ptr %0, i64 100
  %11 = load i32, ptr %10, align 4, !tbaa !9
  store i32 %11, ptr %3, align 4, !tbaa !9
  %12 = load ptr, ptr %0, align 8, !tbaa !3
  %13 = getelementptr inbounds nuw i8, ptr %12, i64 336
  %14 = load ptr, ptr %13, align 8
  %15 = tail call noundef i32 %14(ptr noundef nonnull align 8 dereferenceable(192) %0, ptr noundef nonnull align 4 dereferenceable(4) %1)
  %16 = load i32, ptr %1, align 4, !tbaa !6
  %17 = icmp slt i32 %16, 1
  br i1 %17, label %18, label %.thread

18:                                               ; preds = %9
  %19 = sext i32 %15 to i64
  %20 = mul nsw i64 %19, 12
  %21 = add nsw i64 %20, 17
  %22 = srem i64 %21, 19
  %23 = icmp slt i64 %22, 0
  %24 = select i1 %23, i64 -7, i64 12
  %25 = icmp sge i64 %22, %24
  %26 = icmp slt i32 %11, 6
  %or.cond = select i1 %25, i1 true, i1 %26
  br i1 %or.cond, label %.thread, label %27

.thread:                                          ; preds = %9, %18
  %.1.ph = phi i32 [ %11, %18 ], [ 0, %9 ]
  call void @llvm.lifetime.end.p0(i64 4, ptr nonnull %3) #8
  br label %32

27:                                               ; preds = %18
  %28 = call signext i8 @uprv_add32_overflow_77(i32 noundef %11, i32 noundef 1, ptr noundef nonnull %3)
  %.not12.not = icmp eq i8 %28, 0
  %29 = load i32, ptr %3, align 4
  call void @llvm.lifetime.end.p0(i64 4, ptr nonnull %3) #8
  br i1 %.not12.not, label %32, label %30

30:                                               ; preds = %27, %6
  %31 = call noundef i32 @_ZNK6icu_778Calendar16internalGetMonthER10UErrorCode(ptr noundef nonnull align 8 dereferenceable(192) %0, ptr noundef nonnull align 4 dereferenceable(4) %1)
  br label %32

32:                                               ; preds = %.thread, %27, %2, %30
  %.09 = phi i32 [ %29, %27 ], [ %31, %30 ], [ 0, %2 ], [ %.1.ph, %.thread ]
  ret i32 %.09
}